target datalayout = "e-m:e-p270:32:32-p271:32:32-p272:64:64-i64:64-i128:128-f80:128-n8:16:32:64-S128"
target triple = "x86_64-pc-linux-gnu"

%struct.blf_params = type { ptr, ptr, ptr, i8, i8, ptr }
%struct.wtap_rec = type { i32, i32, i32, %struct.nstime_t, i32, %struct.nstime_t, i8, %union.anon, ptr, i8, %struct.Buffer, %struct.Buffer }
%struct.nstime_t = type { i64, i32 }
%union.anon = type { %struct.wtap_packet_header }
%struct.wtap_packet_header = type { i32, i32, i32, i32, %union.wtap_pseudo_header }
%union.wtap_pseudo_header = type { %struct.erf_mc_phdr }
%struct.erf_mc_phdr = type { %struct.erf_phdr, [16 x %struct.erf_ehdr], %union.anon.1 }
%struct.erf_phdr = type { i64, i8, i8, i16, i16, i16 }
%struct.erf_ehdr = type { i64 }
%union.anon.1 = type { i32 }
%struct.Buffer = type { ptr, i64, i64, i64 }
%struct.blf_canfdmessage = type { i16, i8, i8, i32, i32, i8, i8, i8, i8, i32 }

@.str.62 = private unnamed_addr constant [65 x i8] c"blf: CAN_FD_MESSAGE: not enough bytes for canfd header in object\00", align 1
@canfd_dlc_to_length = internal global [16 x i8] c"\00\01\02\03\04\05\06\07\08\0C\10\14\18 0@", align 16
@can_dlc_to_length = internal global [16 x i8] c"\00\01\02\03\04\05\06\07\08\08\08\08\08\08\08\08", align 16

; Function Attrs: null_pointer_is_valid sspstrong uwtable
define internal void @blf_add_direction_option(ptr noundef %0, i16 noundef zeroext %1) #2 {
  %3 = alloca ptr, align 8
  %4 = alloca i16, align 2
  %5 = alloca i32, align 4
  store ptr %0, ptr %3, align 8
  store i16 %1, ptr %4, align 2
  call void @llvm.lifetime.start.p0(i64 4, ptr %5) #13
  store i32 0, ptr %5, align 4
  %6 = load i16, ptr %4, align 2
  %7 = zext i16 %6 to i32
  switch i32 %7, label %10 [
    i32 0, label %8
    i32 1, label %9
    i32 2, label %9
  ]

8:                                                ; preds = %2
  store i32 1, ptr %5, align 4
  br label %10

9:                                                ; preds = %2, %2
  store i32 2, ptr %5, align 4
  br label %10

10:                                               ; preds = %2, %9, %8
  %11 = load ptr, ptr %3, align 8
  %12 = getelementptr inbounds nuw %struct.blf_params, ptr %11, i32 0, i32 1
  %13 = load ptr, ptr %12, align 8
  %14 = getelementptr inbounds nuw %struct.wtap_rec, ptr %13, i32 0, i32 8
  %15 = load ptr, ptr %14, align 8
  %16 = load i32, ptr %5, align 4
  %17 = call i32 @wtap_block_add_uint32_option(ptr noundef %15, i32 noundef 2, i32 noundef %16)
  call void @llvm.lifetime.end.p0(i64 4, ptr %5) #13
  ret void
}

; Function Attrs: nounwind null_pointer_is_valid sspstrong uwtable
define internal void @fix_endianness_blf_canfdmessage(ptr noundef %0) #0 {
  %2 = alloca ptr, align 8
  store ptr %0, ptr %2, align 8
  %3 = load ptr, ptr %2, align 8
  %4 = getelementptr inbounds nuw %struct.blf_canfdmessage, ptr %3, i32 0, i32 0
  %5 = load i16, ptr %4, align 4
  %6 = load ptr, ptr %2, align 8
  %7 = getelementptr inbounds nuw %struct.blf_canfdmessage, ptr %6, i32 0, i32 0
  store i16 %5, ptr %7, align 4
  %8 = load ptr, ptr %2, align 8
  %9 = getelementptr inbounds nuw %struct.blf_canfdmessage, ptr %8, i32 0, i32 3
  %10 = load i32, ptr %9, align 4
  %11 = load ptr, ptr %2, align 8
  %12 = getelementptr inbounds nuw %struct.blf_canfdmessage, ptr %11, i32 0, i32 3
  store i32 %10, ptr %12, align 4
  %13 = load ptr, ptr %2, align 8
  %14 = getelementptr inbounds nuw %struct.blf_canfdmessage, ptr %13, i32 0, i32 4
  %15 = load i32, ptr %14, align 4
  %16 = load ptr, ptr %2, align 8
  %17 = getelementptr inbounds nuw %struct.blf_canfdmessage, ptr %16, i32 0, i32 4
  store i32 %15, ptr %17, align 4
  %18 = load ptr, ptr %2, align 8
  %19 = getelementptr inbounds nuw %struct.blf_canfdmessage, ptr %18, i32 0, i32 9
  %20 = load i32, ptr %19, align 4
  %21 = load ptr, ptr %2, align 8
  %22 = getelementptr inbounds nuw %struct.blf_canfdmessage, ptr %21, i32 0, i32 9
  store i32 %20, ptr %22, align 4
  ret void
}

; Function Attrs: null_pointer_is_valid sspstrong uwtable
define internal zeroext i1 @blf_read_bytes(ptr noundef %0, i64 noundef %1, ptr noundef %2, i64 noundef %3, ptr noundef %4, ptr noundef %5) #2 {
  %7 = alloca i1, align 1
  %8 = alloca ptr, align 8
  %9 = alloca i64, align 8
  %10 = alloca ptr, align 8
  %11 = alloca i64, align 8
  %12 = alloca ptr, align 8
  %13 = alloca ptr, align 8
  store ptr %0, ptr %8, align 8
  store i64 %1, ptr %9, align 8
  store ptr %2, ptr %10, align 8
  store i64 %3, ptr %11, align 8
  store ptr %4, ptr %12, align 8
  store ptr %5, ptr %13, align 8
  %14 = load ptr, ptr %8, align 8
  %15 = load i64, ptr %9, align 8
  %16 = load ptr, ptr %10, align 8
  %17 = load i64, ptr %11, align 8
  %18 = load ptr, ptr %12, align 8
  %19 = load ptr, ptr %13, align 8
  %20 = call zeroext i1 @blf_read_bytes_or_eof(ptr noundef %14, i64 noundef %15, ptr noundef %16, i64 noundef %17, ptr noundef %18, ptr noundef %19)
  br i1 %20, label %28, label %21

21:                                               ; preds = %6
  %22 = load ptr, ptr %12, align 8
  %23 = load i32, ptr %22, align 4
  %24 = icmp eq i32 %23, 0
  br i1 %24, label %25, label %27

25:                                               ; preds = %21
  %26 = load ptr, ptr %12, align 8
  store i32 -12, ptr %26, align 4
  br label %27

27:                                               ; preds = %25, %21
  store i1 false, ptr %7, align 1
  br label %29

28:                                               ; preds = %6
  store i1 true, ptr %7, align 1
  br label %29

29:                                               ; preds = %28, %27
  %30 = load i1, ptr %7, align 1
  ret i1 %30
}

; Function Attrs: null_pointer_is_valid sspstrong uwtable
define internal zeroext i1 @blf_read_canfdmessage(ptr noundef %0, ptr noundef %1, ptr noundef %2, i64 noundef %3, i64 noundef %4, i64 noundef %5, i32 noundef %6, i64 noundef %7) #2 {
  %9 = alloca i1, align 1
  %10 = alloca ptr, align 8
  %11 = alloca ptr, align 8
  %12 = alloca ptr, align 8
  %13 = alloca i64, align 8
  %14 = alloca i64, align 8
  %15 = alloca i64, align 8
  %16 = alloca i32, align 4
  %17 = alloca i64, align 8
  %18 = alloca %struct.blf_canfdmessage, align 4
  %19 = alloca i8, align 1
  %20 = alloca i32, align 4
  %21 = alloca i8, align 1
  %22 = alloca i8, align 1
  %23 = alloca i8, align 1
  %24 = alloca i32, align 4
  store ptr %0, ptr %10, align 8
  store ptr %1, ptr %11, align 8
  store ptr %2, ptr %12, align 8
  store i64 %3, ptr %13, align 8
  store i64 %4, ptr %14, align 8
  store i64 %5, ptr %15, align 8
  store i32 %6, ptr %16, align 4
  store i64 %7, ptr %17, align 8
  call void @llvm.lifetime.start.p0(i64 20, ptr %18) #13
  call void @llvm.lifetime.start.p0(i64 1, ptr %19) #13
  call void @llvm.lifetime.start.p0(i64 4, ptr %20) #13
  call void @llvm.lifetime.start.p0(i64 1, ptr %21) #13
  call void @llvm.lifetime.start.p0(i64 1, ptr %22) #13
  call void @llvm.lifetime.start.p0(i64 1, ptr %23) #13
  %25 = load i64, ptr %15, align 8
  %26 = load i64, ptr %14, align 8
  %27 = load i64, ptr %13, align 8
  %28 = sub i64 %26, %27
  %29 = add i64 %28, 20
  %30 = icmp slt i64 %25, %29
  br i1 %30, label %31, label %38

31:                                               ; preds = %8
  %32 = load ptr, ptr %11, align 8
  store i32 -13, ptr %32, align 4
  %33 = call noalias ptr @wmem_strdup(ptr noundef null, ptr noundef @.str.62)
  %34 = load ptr, ptr %12, align 8
  store ptr %33, ptr %34, align 8
  br label %35

35:                                               ; preds = %31
  br label %36

36:                                               ; preds = %35
  br label %37

37:                                               ; preds = %36
  store i1 false, ptr %9, align 1
  store i32 1, ptr %24, align 4
  br label %174

38:                                               ; preds = %8
  %39 = load ptr, ptr %10, align 8
  %40 = load i64, ptr %14, align 8
  %41 = load ptr, ptr %11, align 8
  %42 = load ptr, ptr %12, align 8
  %43 = call zeroext i1 @blf_read_bytes(ptr noundef %39, i64 noundef %40, ptr noundef %18, i64 noundef 20, ptr noundef %41, ptr noundef %42)
  br i1 %43, label %48, label %44

44:                                               ; preds = %38
  br label %45

45:                                               ; preds = %44
  br label %46

46:                                               ; preds = %45
  br label %47

47:                                               ; preds = %46
  store i1 false, ptr %9, align 1
  store i32 1, ptr %24, align 4
  br label %174

48:                                               ; preds = %38
  call void @fix_endianness_blf_canfdmessage(ptr noundef %18)
  %49 = getelementptr inbounds nuw %struct.blf_canfdmessage, ptr %18, i32 0, i32 2
  %50 = load i8, ptr %49, align 1
  %51 = zext i8 %50 to i32
  %52 = and i32 %51, 15
  %53 = trunc i32 %52 to i8
  store i8 %53, ptr %49, align 1
  %54 = getelementptr inbounds nuw %struct.blf_canfdmessage, ptr %18, i32 0, i32 6
  %55 = load i8, ptr %54, align 1
  %56 = zext i8 %55 to i32
  %57 = and i32 %56, 1
  %58 = icmp eq i32 %57, 1
  %59 = zext i1 %58 to i8
  store i8 %59, ptr %19, align 1
  %60 = load i8, ptr %19, align 1, !range !8, !noundef !9
  %61 = trunc i8 %60 to i1
  br i1 %61, label %62, label %86

62:                                               ; preds = %48
  %63 = getelementptr inbounds nuw %struct.blf_canfdmessage, ptr %18, i32 0, i32 2
  %64 = load i8, ptr %63, align 1
  %65 = zext i8 %64 to i64
  %66 = getelementptr [16 x i8], ptr @canfd_dlc_to_length, i64 0, i64 %65
  %67 = load i8, ptr %66, align 1
  store i8 %67, ptr %21, align 1
  %68 = getelementptr inbounds nuw %struct.blf_canfdmessage, ptr %18, i32 0, i32 6
  %69 = load i8, ptr %68, align 1
  %70 = zext i8 %69 to i32
  %71 = and i32 %70, 1
  %72 = shl i32 %71, 2
  %73 = getelementptr inbounds nuw %struct.blf_canfdmessage, ptr %18, i32 0, i32 6
  %74 = load i8, ptr %73, align 1
  %75 = zext i8 %74 to i32
  %76 = and i32 %75, 4
  %77 = ashr i32 %76, 1
  %78 = or i32 %72, %77
  %79 = getelementptr inbounds nuw %struct.blf_canfdmessage, ptr %18, i32 0, i32 6
  %80 = load i8, ptr %79, align 1
  %81 = zext i8 %80 to i32
  %82 = and i32 %81, 2
  %83 = ashr i32 %82, 1
  %84 = or i32 %78, %83
  %85 = trunc i32 %84 to i8
  store i8 %85, ptr %23, align 1
  br label %101

86:                                               ; preds = %48
  %87 = getelementptr inbounds nuw %struct.blf_canfdmessage, ptr %18, i32 0, i32 2
  %88 = load i8, ptr %87, align 1
  %89 = zext i8 %88 to i32
  %90 = icmp sgt i32 %89, 8
  br i1 %90, label %91, label %95

91:                                               ; preds = %86
  br label %92

92:                                               ; preds = %91
  br label %93

93:                                               ; preds = %92
  br label %94

94:                                               ; preds = %93
  br label %95

95:                                               ; preds = %94, %86
  %96 = getelementptr inbounds nuw %struct.blf_canfdmessage, ptr %18, i32 0, i32 2
  %97 = load i8, ptr %96, align 1
  %98 = zext i8 %97 to i64
  %99 = getelementptr [16 x i8], ptr @can_dlc_to_length, i64 0, i64 %98
  %100 = load i8, ptr %99, align 1
  store i8 %100, ptr %21, align 1
  store i8 0, ptr %23, align 1
  br label %101

101:                                              ; preds = %95, %62
  %102 = load i8, ptr %21, align 1
  %103 = zext i8 %102 to i32
  %104 = getelementptr inbounds nuw %struct.blf_canfdmessage, ptr %18, i32 0, i32 7
  %105 = load i8, ptr %104, align 2
  %106 = zext i8 %105 to i32
  %107 = icmp sgt i32 %103, %106
  br i1 %107, label %108, label %114

108:                                              ; preds = %101
  br label %109

109:                                              ; preds = %108
  br label %110

110:                                              ; preds = %109
  br label %111

111:                                              ; preds = %110
  %112 = getelementptr inbounds nuw %struct.blf_canfdmessage, ptr %18, i32 0, i32 7
  %113 = load i8, ptr %112, align 2
  store i8 %113, ptr %21, align 1
  br label %114

114:                                              ; preds = %111, %101
  %115 = getelementptr inbounds nuw %struct.blf_canfdmessage, ptr %18, i32 0, i32 3
  %116 = load i32, ptr %115, align 4
  store i32 %116, ptr %20, align 4
  %117 = load i8, ptr %19, align 1, !range !8, !noundef !9
  %118 = trunc i8 %117 to i1
  br i1 %118, label %128, label %119

119:                                              ; preds = %114
  %120 = getelementptr inbounds nuw %struct.blf_canfdmessage, ptr %18, i32 0, i32 1
  %121 = load i8, ptr %120, align 2
  %122 = zext i8 %121 to i32
  %123 = and i32 %122, 128
  %124 = icmp eq i32 %123, 128
  br i1 %124, label %125, label %128

125:                                              ; preds = %119
  %126 = load i32, ptr %20, align 4
  %127 = or i32 %126, 1073741824
  store i32 %127, ptr %20, align 4
  store i8 0, ptr %21, align 1
  br label %128

128:                                              ; preds = %125, %119, %114
  %129 = load i8, ptr %21, align 1
  store i8 %129, ptr %22, align 1
  %130 = load i8, ptr %22, align 1
  %131 = zext i8 %130 to i64
  %132 = load i64, ptr %15, align 8
  %133 = load i64, ptr %14, align 8
  %134 = load i64, ptr %13, align 8
  %135 = sub i64 %133, %134
  %136 = sub i64 %132, %135
  %137 = add i64 %136, 20
  %138 = icmp ugt i64 %131, %137
  br i1 %138, label %139, label %149

139:                                              ; preds = %128
  br label %140

140:                                              ; preds = %139
  br label %141

141:                                              ; preds = %140
  br label %142

142:                                              ; preds = %141
  %143 = load i64, ptr %15, align 8
  %144 = load i64, ptr %14, align 8
  %145 = load i64, ptr %13, align 8
  %146 = sub i64 %144, %145
  %147 = sub i64 %143, %146
  %148 = trunc i64 %147 to i8
  store i8 %148, ptr %22, align 1
  br label %149

149:                                              ; preds = %142, %128
  %150 = load ptr, ptr %10, align 8
  %151 = load ptr, ptr %11, align 8
  %152 = load ptr, ptr %12, align 8
  %153 = load i32, ptr %20, align 4
  %154 = load i8, ptr %21, align 1
  %155 = load i8, ptr %22, align 1
  %156 = load i64, ptr %14, align 8
  %157 = add i64 %156, 20
  %158 = load i32, ptr %16, align 4
  %159 = load i64, ptr %17, align 8
  %160 = getelementptr inbounds nuw %struct.blf_canfdmessage, ptr %18, i32 0, i32 0
  %161 = load i16, ptr %160, align 4
  %162 = load i8, ptr %23, align 1
  %163 = call zeroext i1 @blf_can_fill_buf_and_rec(ptr noundef %150, ptr noundef %151, ptr noundef %152, i32 noundef %153, i8 noundef zeroext %154, i8 noundef zeroext %155, i64 noundef %157, i32 noundef %158, i64 noundef %159, i16 noundef zeroext %161, i8 noundef zeroext %162)
  br i1 %163, label %165, label %164

164:                                              ; preds = %149
  store i1 false, ptr %9, align 1
  store i32 1, ptr %24, align 4
  br label %174

165:                                              ; preds = %149
  %166 = load ptr, ptr %10, align 8
  %167 = getelementptr inbounds nuw %struct.blf_canfdmessage, ptr %18, i32 0, i32 1
  %168 = load i8, ptr %167, align 2
  %169 = zext i8 %168 to i32
  %170 = and i32 %169, 1
  %171 = icmp eq i32 %170, 1
  %172 = select i1 %171, i32 1, i32 0
  %173 = trunc i32 %172 to i16
  call void @blf_add_direction_option(ptr noundef %166, i16 noundef zeroext %173)
  store i1 true, ptr %9, align 1
  store i32 1, ptr %24, align 4
  br label %174

174:                                              ; preds = %165, %164, %47, %37
  call void @llvm.lifetime.end.p0(i64 1, ptr %23) #13
  call void @llvm.lifetime.end.p0(i64 1, ptr %22) #13
  call void @llvm.lifetime.end.p0(i64 1, ptr %21) #13
  call void @llvm.lifetime.end.p0(i64 4, ptr %20) #13
  call void @llvm.lifetime.end.p0(i64 1, ptr %19) #13
  call void @llvm.lifetime.end.p0(i64 20, ptr %18) #13
  %175 = load i1, ptr %9, align 1
  ret i1 %175
}