; Function Attrs: null_pointer_is_valid sspstrong uwtable
define internal fastcc noundef zeroext i1 @blf_read_canfdmessage(ptr noundef readonly captures(none) %0, ptr noundef %1, ptr noundef %2, i64 noundef %3, i64 noundef %4, i64 noundef range(i64 0, 4294967296) %5, i32 noundef %6, i64 noundef %7) unnamed_addr #2 {
  %9 = alloca %struct.blf_canfdmessage, align 4
  call void @llvm.lifetime.start.p0(i64 20, ptr nonnull %9) #14
  %10 = sub i64 %4, %3
  %11 = add i64 %10, 20
  %12 = icmp slt i64 %5, %11
  br i1 %12, label %13, label %15

13:                                               ; preds = %8
  store i32 -13, ptr %1, align 4
  %14 = tail call noalias ptr @wmem_strdup(ptr noundef null, ptr noundef nonnull @.str.62)
  store ptr %14, ptr %2, align 8
  br label %blf_read_bytes.exit.thread

15:                                               ; preds = %8
  %16 = call fastcc zeroext i1 @blf_read_bytes_or_eof(ptr noundef readonly %0, i64 noundef %4, ptr noundef nonnull %9, i64 noundef 20, ptr noundef %1, ptr noundef %2)
  br i1 %16, label %blf_read_bytes.exit, label %17

17:                                               ; preds = %15
  %18 = load i32, ptr %1, align 4
  %19 = icmp eq i32 %18, 0
  br i1 %19, label %20, label %blf_read_bytes.exit.thread

20:                                               ; preds = %17
  store i32 -12, ptr %1, align 4
  br label %blf_read_bytes.exit.thread

blf_read_bytes.exit:                              ; preds = %15
  %21 = getelementptr inbounds nuw i8, ptr %9, i64 3
  %22 = load i8, ptr %21, align 1
  %23 = and i8 %22, 15
  store i8 %23, ptr %21, align 1
  %24 = getelementptr inbounds nuw i8, ptr %9, i64 13
  %25 = load i8, ptr %24, align 1
  %26 = and i8 %25, 1
  %.not = icmp ne i8 %26, 0
  %27 = zext nneg i8 %23 to i64
  %28 = getelementptr [16 x i8], ptr @canfd_dlc_to_length, i64 0, i64 %27
  %29 = lshr i8 %25, 1
  %30 = and i8 %29, 3
  %31 = or disjoint i8 %30, 4
  %32 = getelementptr [16 x i8], ptr @can_dlc_to_length, i64 0, i64 %27
  %.033.in = select i1 %.not, ptr %28, ptr %32
  %.0 = select i1 %.not, i8 %31, i8 0
  %.033 = load i8, ptr %.033.in, align 1
  %33 = getelementptr inbounds nuw i8, ptr %9, i64 14
  %34 = load i8, ptr %33, align 2
  %spec.select = call i8 @llvm.umin.i8(i8 %.033, i8 %34)
  %35 = getelementptr inbounds nuw i8, ptr %9, i64 4
  %36 = load i32, ptr %35, align 4
  %37 = getelementptr inbounds nuw i8, ptr %9, i64 2
  %38 = load i8, ptr %37, align 2
  %.not38 = icmp sgt i8 %38, -1
  %or.cond = select i1 %.not, i1 true, i1 %.not38
  %39 = or i32 %36, 1073741824
  %.034 = select i1 %or.cond, i32 %36, i32 %39
  %.2 = select i1 %or.cond, i8 %spec.select, i8 0
  %40 = zext i8 %.2 to i64
  %41 = sub i64 %5, %10
  %42 = add i64 %41, 20
  %43 = icmp ult i64 %42, %40
  %44 = trunc i64 %41 to i8
  %.032 = select i1 %43, i8 %44, i8 %.2
  %45 = add i64 %4, 20
  %46 = load i16, ptr %9, align 4
  %47 = call fastcc zeroext i1 @blf_can_fill_buf_and_rec(ptr noundef %0, ptr noundef %1, ptr noundef %2, i32 noundef %.034, i8 noundef zeroext %.2, i8 noundef zeroext %.032, i64 noundef %45, i32 noundef %6, i64 noundef %7, i16 noundef zeroext %46, i8 noundef zeroext %.0)
  br i1 %47, label %blf_add_direction_option.exit, label %blf_read_bytes.exit.thread

blf_add_direction_option.exit:                    ; preds = %blf_read_bytes.exit
  %48 = load i8, ptr %37, align 2
  %49 = and i8 %48, 1
  %switch.not.not = icmp eq i8 %49, 0
  %. = select i1 %switch.not.not, i32 1, i32 2
  %50 = getelementptr inbounds nuw i8, ptr %0, i64 8
  %51 = load ptr, ptr %50, align 8
  %52 = getelementptr inbounds nuw i8, ptr %51, i64 232
  %53 = load ptr, ptr %52, align 8
  %54 = call i32 @wtap_block_add_uint32_option(ptr noundef %53, i32 noundef 2, i32 noundef %.)
  br label %blf_read_bytes.exit.thread

blf_read_bytes.exit.thread:                       ; preds = %20, %17, %blf_read_bytes.exit, %blf_add_direction_option.exit, %13
  %.035 = phi i1 [ false, %13 ], [ true, %blf_add_direction_option.exit ], [ false, %blf_read_bytes.exit ], [ false, %17 ], [ false, %20 ]
  call void @llvm.lifetime.end.p0(i64 20, ptr nonnull %9) #14
  ret i1 %.035
}